	.text
	.file	"ft_print_char.c"
	.globl	ft_print_char                   # -- Begin function ft_print_char
	.p2align	4, 0x90
	.type	ft_print_char,@function
ft_print_char:                          # @ft_print_char
	.cfi_startproc
# %bb.0:
	pushq	%rbp
	.cfi_def_cfa_offset 16
	.cfi_offset %rbp, -16
	movq	%rsp, %rbp
	.cfi_def_cfa_register %rbp
	subq	$16, %rsp
	movb	%dil, %al
	movb	%al, -1(%rbp)
	movl	$1, %edi
	leaq	-1(%rbp), %rsi
	movl	$1, %edx
	callq	write
	movl	$1, %eax
	addq	$16, %rsp
	popq	%rbp
	.cfi_def_cfa %rsp, 8
	retq
.Lfunc_end0:
	.size	ft_print_char, .Lfunc_end0-ft_print_char
	.cfi_endproc
                                        # -- End function
	.globl	main                            # -- Begin function main
	.p2align	4, 0x90
	.type	main,@function
main:                                   # @main
	.cfi_startproc
# %bb.0:
	pushq	%rbp
	.cfi_def_cfa_offset 16
	.cfi_offset %rbp, -16
	movq	%rsp, %rbp
	.cfi_def_cfa_register %rbp
	subq	$16, %rsp
	movl	$0, -4(%rbp)
	movl	$97, %edi
	callq	ft_print_char
	xorl	%eax, %eax
	addq	$16, %rsp
	popq	%rbp
	.cfi_def_cfa %rsp, 8
	retq
.Lfunc_end1:
	.size	main, .Lfunc_end1-main
	.cfi_endproc
                                        # -- End function
	.ident	"Ubuntu clang version 12.0.1-19ubuntu3"
	.section	".note.GNU-stack","",@progbits
	.addrsig
	.addrsig_sym ft_print_char
	.addrsig_sym write
